target datalayout = "e-m:e-p270:32:32-p271:32:32-p272:64:64-i64:64-i128:128-f80:128-n8:16:32:64-S128"
target triple = "x86_64-pc-linux-gnu"

@mainApp = global ptr null, align 8

; Function Attrs: mustprogress uwtable
define void @topic_action(i32 noundef %0) #4 {
  %2 = alloca i32, align 4
  store i32 %0, ptr %2, align 4
  %3 = load ptr, ptr @mainApp, align 8
  %4 = icmp ne ptr %3, null
  br i1 %4, label %5, label %8

5:                                                ; preds = %1
  %6 = load ptr, ptr @mainApp, align 8
  %7 = load i32, ptr %2, align 4
  call void @_ZN15MainApplication15helpTopicActionE14topic_action_e(ptr noundef nonnull align 8 dereferenceable(216) %6, i32 noundef %7)
  br label %8

8:                                                ; preds = %5, %1
  ret void
}