; Function Attrs: mustprogress uwtable
define void @topic_action(i32 noundef %0) local_unnamed_addr #3 {
  %2 = load ptr, ptr @mainApp, align 8
  %.not = icmp eq ptr %2, null
  br i1 %.not, label %4, label %3

3:                                                ; preds = %1
  tail call void @_ZN15MainApplication15helpTopicActionE14topic_action_e(ptr nonnull align 8 poison, i32 noundef %0)
  br label %4

4:                                                ; preds = %3, %1
  ret void
}